; Function Attrs: nounwind uwtable
define noalias noundef nonnull ptr @l_Std_Barrier_wait___lambda__1(ptr noundef %0, ptr noundef readonly captures(none) %1, ptr readnone captures(none) %2, ptr noundef %3) local_unnamed_addr #0 {
  %5 = getelementptr inbounds nuw i8, ptr %1, i64 16
  %6 = load ptr, ptr %5, align 8, !tbaa !4
  %7 = ptrtoint ptr %6 to i64
  %8 = ptrtoint ptr %0 to i64
  %9 = and i64 %8, 1
  %10 = and i64 %9, %7
  %or.cond.not = icmp eq i64 %10, 0
  br i1 %or.cond.not, label %lean_nat_eq.exit, label %11, !prof !15

11:                                               ; preds = %4
  %12 = icmp eq ptr %6, %0
  br i1 %12, label %18, label %14

lean_nat_eq.exit:                                 ; preds = %4
  %13 = tail call zeroext i1 @lean_nat_big_eq(ptr noundef %6, ptr noundef %0) #4
  br i1 %13, label %18, label %14

14:                                               ; preds = %11, %lean_nat_eq.exit
  tail call void @lean_inc_heartbeat() #4
  %15 = tail call noalias ptr @mi_malloc_small(i64 noundef 24) #4
  %16 = icmp eq ptr %15, null
  br i1 %16, label %17, label %lean_alloc_ctor.exit

17:                                               ; preds = %14
  tail call void @lean_internal_panic_out_of_memory() #5
  unreachable

18:                                               ; preds = %11, %lean_nat_eq.exit
  tail call void @lean_inc_heartbeat() #4
  %19 = tail call noalias ptr @mi_malloc_small(i64 noundef 24) #4
  %20 = icmp eq ptr %19, null
  br i1 %20, label %21, label %lean_alloc_ctor.exit

21:                                               ; preds = %18
  tail call void @lean_internal_panic_out_of_memory() #5
  unreachable

lean_alloc_ctor.exit:                             ; preds = %18, %14
  %.sink24 = phi ptr [ %15, %14 ], [ %19, %18 ]
  %.sink = phi ptr [ inttoptr (i64 3 to ptr), %14 ], [ inttoptr (i64 1 to ptr), %18 ]
  %22 = getelementptr inbounds nuw i8, ptr %.sink24, i64 4
  store i32 1, ptr %.sink24, align 4, !tbaa !8
  store i32 131096, ptr %22, align 4
  %23 = getelementptr inbounds nuw i8, ptr %.sink24, i64 8
  store ptr %.sink, ptr %23, align 8, !tbaa !4
  %24 = getelementptr inbounds nuw i8, ptr %.sink24, i64 16
  store ptr %3, ptr %24, align 8, !tbaa !4
  ret ptr %.sink24
}